target datalayout = "e-m:e-p270:32:32-p271:32:32-p272:64:64-i64:64-i128:128-f80:128-n8:16:32:64-S128"
target triple = "x86_64-pc-linux-gnu"

%class.AccessFlags = type { i32 }
%class.fieldDescriptor = type { %class.FieldInfo, %class.constantPoolHandle }
%class.FieldInfo = type <{ i32, i16, i16, i32, %class.AccessFlags, %"class.FieldInfo::FieldFlags", i16, i16, i16, [2 x i8] }>
%"class.FieldInfo::FieldFlags" = type { i32 }
%class.constantPoolHandle = type { ptr, ptr }

@.str.6 = private unnamed_addr constant [10 x i8] c"injected \00", align 1
@.str.7 = private unnamed_addr constant [2 x i8] c" \00", align 1
@.str.8 = private unnamed_addr constant [6 x i8] c" @%d \00", align 1
@_ZN6Symbol11_vm_symbolsE = external global [0 x ptr], align 8

; Function Attrs: mustprogress nounwind uwtable
define linkonce_odr hidden noundef ptr @_ZNK12ConstantPool4baseEv(ptr noundef nonnull align 8 dereferenceable(68) %0) #1 comdat align 2 {
  %2 = alloca ptr, align 8
  store ptr %0, ptr %2, align 8
  %3 = load ptr, ptr %2, align 8
  %4 = getelementptr inbounds i8, ptr %3, i64 72
  ret ptr %4
}

; Function Attrs: mustprogress nounwind uwtable
define linkonce_odr hidden noundef ptr @_ZNK12ConstantPool14symbol_at_addrEi(ptr noundef nonnull align 8 dereferenceable(68) %0, i32 noundef %1) #1 comdat align 2 {
  %3 = alloca ptr, align 8
  %4 = alloca i32, align 4
  store ptr %0, ptr %3, align 8
  store i32 %1, ptr %4, align 4
  %5 = load ptr, ptr %3, align 8
  %6 = call noundef ptr @_ZNK12ConstantPool4baseEv(ptr noundef nonnull align 8 dereferenceable(68) %5)
  %7 = load i32, ptr %4, align 4
  %8 = sext i32 %7 to i64
  %9 = getelementptr inbounds i64, ptr %6, i64 %8
  ret ptr %9
}

; Function Attrs: mustprogress nounwind uwtable
define linkonce_odr hidden noundef ptr @_ZN6Symbol12vm_symbol_atE10vmSymbolID(i32 noundef %0) #1 comdat align 2 {
  %2 = alloca i32, align 4
  store i32 %0, ptr %2, align 4
  %3 = load i32, ptr %2, align 4
  %4 = sext i32 %3 to i64
  %5 = getelementptr inbounds [0 x ptr], ptr @_ZN6Symbol11_vm_symbolsE, i64 0, i64 %4
  %6 = load ptr, ptr %5, align 8
  ret ptr %6
}

; Function Attrs: mustprogress nounwind uwtable
define linkonce_odr hidden noundef ptr @_ZNK12ConstantPool9symbol_atEi(ptr noundef nonnull align 8 dereferenceable(68) %0, i32 noundef %1) #1 comdat align 2 {
  %3 = alloca ptr, align 8
  %4 = alloca i32, align 4
  store ptr %0, ptr %3, align 8
  store i32 %1, ptr %4, align 4
  %5 = load ptr, ptr %3, align 8
  %6 = load i32, ptr %4, align 4
  %7 = call noundef ptr @_ZNK12ConstantPool14symbol_at_addrEi(ptr noundef nonnull align 8 dereferenceable(68) %5, i32 noundef %6)
  %8 = load ptr, ptr %7, align 8
  ret ptr %8
}

; Function Attrs: mustprogress nounwind uwtable
define linkonce_odr hidden noundef ptr @_ZNK9FieldInfo13lookup_symbolEi(ptr noundef nonnull align 4 dereferenceable(26) %0, i32 noundef %1) #1 comdat align 2 {
  %3 = alloca ptr, align 8
  %4 = alloca i32, align 4
  store ptr %0, ptr %3, align 8
  store i32 %1, ptr %4, align 4
  %5 = load i32, ptr %4, align 4
  %6 = call noundef ptr @_ZN6Symbol12vm_symbol_atE10vmSymbolID(i32 noundef %5)
  ret ptr %6
}

; Function Attrs: mustprogress nounwind uwtable
define linkonce_odr hidden noundef ptr @_ZNK18constantPoolHandle3objEv(ptr noundef nonnull align 8 dereferenceable(16) %0) #1 comdat align 2 {
  %2 = alloca ptr, align 8
  store ptr %0, ptr %2, align 8
  %3 = load ptr, ptr %2, align 8
  %4 = getelementptr inbounds %class.constantPoolHandle, ptr %3, i32 0, i32 0
  %5 = load ptr, ptr %4, align 8
  ret ptr %5
}

; Function Attrs: mustprogress nounwind uwtable
define internal noundef i32 @_ZL9flag_maski(i32 noundef %0) #1 {
  %2 = alloca i32, align 4
  store i32 %0, ptr %2, align 4
  %3 = load i32, ptr %2, align 4
  %4 = shl i32 1, %3
  ret i32 %4
}

; Function Attrs: mustprogress nounwind uwtable
define linkonce_odr hidden noundef i32 @_ZNK9FieldInfo6offsetEv(ptr noundef nonnull align 4 dereferenceable(26) %0) #1 comdat align 2 {
  %2 = alloca ptr, align 8
  store ptr %0, ptr %2, align 8
  %3 = load ptr, ptr %2, align 8
  %4 = getelementptr inbounds %class.FieldInfo, ptr %3, i32 0, i32 3
  %5 = load i32, ptr %4, align 4
  ret i32 %5
}

; Function Attrs: mustprogress nounwind uwtable
define linkonce_odr hidden noundef ptr @_ZNK9FieldInfo9signatureEP12ConstantPool(ptr noundef nonnull align 4 dereferenceable(26) %0, ptr noundef %1) #1 comdat align 2 {
  %3 = alloca ptr, align 8
  %4 = alloca ptr, align 8
  %5 = alloca ptr, align 8
  %6 = alloca i32, align 4
  store ptr %0, ptr %4, align 8
  store ptr %1, ptr %5, align 8
  %7 = load ptr, ptr %4, align 8
  %8 = getelementptr inbounds %class.FieldInfo, ptr %7, i32 0, i32 2
  %9 = load i16, ptr %8, align 2
  %10 = zext i16 %9 to i32
  store i32 %10, ptr %6, align 4
  %11 = getelementptr inbounds %class.FieldInfo, ptr %7, i32 0, i32 5
  %12 = call noundef zeroext i1 @_ZNK9FieldInfo10FieldFlags11is_injectedEv(ptr noundef nonnull align 4 dereferenceable(4) %11)
  br i1 %12, label %13, label %16

13:                                               ; preds = %2
  %14 = load i32, ptr %6, align 4
  %15 = call noundef ptr @_ZNK9FieldInfo13lookup_symbolEi(ptr noundef nonnull align 4 dereferenceable(26) %7, i32 noundef %14)
  store ptr %15, ptr %3, align 8
  br label %20

16:                                               ; preds = %2
  %17 = load ptr, ptr %5, align 8
  %18 = load i32, ptr %6, align 4
  %19 = call noundef ptr @_ZNK12ConstantPool9symbol_atEi(ptr noundef nonnull align 8 dereferenceable(68) %17, i32 noundef %18)
  store ptr %19, ptr %3, align 8
  br label %20

20:                                               ; preds = %16, %13
  %21 = load ptr, ptr %3, align 8
  ret ptr %21
}

; Function Attrs: mustprogress nounwind uwtable
define linkonce_odr hidden noundef ptr @_ZNK9FieldInfo4nameEP12ConstantPool(ptr noundef nonnull align 4 dereferenceable(26) %0, ptr noundef %1) #1 comdat align 2 {
  %3 = alloca ptr, align 8
  %4 = alloca ptr, align 8
  %5 = alloca ptr, align 8
  %6 = alloca i32, align 4
  store ptr %0, ptr %4, align 8
  store ptr %1, ptr %5, align 8
  %7 = load ptr, ptr %4, align 8
  %8 = getelementptr inbounds %class.FieldInfo, ptr %7, i32 0, i32 1
  %9 = load i16, ptr %8, align 4
  %10 = zext i16 %9 to i32
  store i32 %10, ptr %6, align 4
  %11 = getelementptr inbounds %class.FieldInfo, ptr %7, i32 0, i32 5
  %12 = call noundef zeroext i1 @_ZNK9FieldInfo10FieldFlags11is_injectedEv(ptr noundef nonnull align 4 dereferenceable(4) %11)
  br i1 %12, label %13, label %16

13:                                               ; preds = %2
  %14 = load i32, ptr %6, align 4
  %15 = call noundef ptr @_ZNK9FieldInfo13lookup_symbolEi(ptr noundef nonnull align 4 dereferenceable(26) %7, i32 noundef %14)
  store ptr %15, ptr %3, align 8
  br label %20

16:                                               ; preds = %2
  %17 = load ptr, ptr %5, align 8
  %18 = load i32, ptr %6, align 4
  %19 = call noundef ptr @_ZNK12ConstantPool9symbol_atEi(ptr noundef nonnull align 8 dereferenceable(68) %17, i32 noundef %18)
  store ptr %19, ptr %3, align 8
  br label %20

20:                                               ; preds = %16, %13
  %21 = load ptr, ptr %3, align 8
  ret ptr %21
}

; Function Attrs: mustprogress nounwind uwtable
define linkonce_odr hidden noundef ptr @_ZNK18constantPoolHandleclEv(ptr noundef nonnull align 8 dereferenceable(16) %0) #1 comdat align 2 {
  %2 = alloca ptr, align 8
  store ptr %0, ptr %2, align 8
  %3 = load ptr, ptr %2, align 8
  %4 = call noundef ptr @_ZNK18constantPoolHandle3objEv(ptr noundef nonnull align 8 dereferenceable(16) %3)
  ret ptr %4
}

; Function Attrs: mustprogress nounwind uwtable
define linkonce_odr hidden void @_ZNK15fieldDescriptor5fieldEv(ptr dead_on_unwind noalias writable sret(%class.FieldInfo) align 4 %0, ptr noundef nonnull align 8 dereferenceable(48) %1) #1 comdat align 2 {
  %3 = alloca ptr, align 8
  store ptr %1, ptr %3, align 8
  %4 = load ptr, ptr %3, align 8
  %5 = getelementptr inbounds %class.fieldDescriptor, ptr %4, i32 0, i32 0
  call void @llvm.memcpy.p0.p0.i64(ptr align 4 %0, ptr align 8 %5, i64 28, i1 false)
  ret void
}

; Function Attrs: mustprogress nounwind uwtable
define linkonce_odr hidden noundef zeroext i1 @_ZNK9FieldInfo10FieldFlags9test_flagENS0_20FieldFlagBitPositionE(ptr noundef nonnull align 4 dereferenceable(4) %0, i32 noundef %1) #1 comdat align 2 {
  %3 = alloca ptr, align 8
  %4 = alloca i32, align 4
  store ptr %0, ptr %3, align 8
  store i32 %1, ptr %4, align 4
  %5 = load ptr, ptr %3, align 8
  %6 = getelementptr inbounds %"class.FieldInfo::FieldFlags", ptr %5, i32 0, i32 0
  %7 = load i32, ptr %6, align 4
  %8 = load i32, ptr %4, align 4
  %9 = call noundef i32 @_ZL9flag_maski(i32 noundef %8)
  %10 = and i32 %7, %9
  %11 = icmp ne i32 %10, 0
  ret i1 %11
}

; Function Attrs: mustprogress nounwind uwtable
define linkonce_odr hidden i32 @_ZNK9FieldInfo11field_flagsEv(ptr noundef nonnull align 4 dereferenceable(26) %0) #1 comdat align 2 {
  %2 = alloca %"class.FieldInfo::FieldFlags", align 4
  %3 = alloca ptr, align 8
  store ptr %0, ptr %3, align 8
  %4 = load ptr, ptr %3, align 8
  %5 = getelementptr inbounds %class.FieldInfo, ptr %4, i32 0, i32 5
  call void @llvm.memcpy.p0.p0.i64(ptr align 4 %2, ptr align 4 %5, i64 4, i1 false)
  %6 = getelementptr inbounds %"class.FieldInfo::FieldFlags", ptr %2, i32 0, i32 0
  %7 = load i32, ptr %6, align 4
  ret i32 %7
}

; Function Attrs: mustprogress nounwind uwtable
define linkonce_odr hidden i32 @_ZNK9FieldInfo12access_flagsEv(ptr noundef nonnull align 4 dereferenceable(26) %0) #1 comdat align 2 {
  %2 = alloca %class.AccessFlags, align 4
  %3 = alloca ptr, align 8
  store ptr %0, ptr %3, align 8
  %4 = load ptr, ptr %3, align 8
  %5 = getelementptr inbounds %class.FieldInfo, ptr %4, i32 0, i32 4
  call void @llvm.memcpy.p0.p0.i64(ptr align 4 %2, ptr align 4 %5, i64 4, i1 false)
  %6 = getelementptr inbounds %class.AccessFlags, ptr %2, i32 0, i32 0
  %7 = load i32, ptr %6, align 4
  ret i32 %7
}

; Function Attrs: mustprogress nounwind uwtable
define linkonce_odr hidden noundef i32 @_ZNK15fieldDescriptor6offsetEv(ptr noundef nonnull align 8 dereferenceable(48) %0) #1 comdat align 2 {
  %2 = alloca ptr, align 8
  %3 = alloca %class.FieldInfo, align 4
  store ptr %0, ptr %2, align 8
  %4 = load ptr, ptr %2, align 8
  call void @_ZNK15fieldDescriptor5fieldEv(ptr dead_on_unwind writable sret(%class.FieldInfo) align 4 %3, ptr noundef nonnull align 8 dereferenceable(48) %4)
  %5 = call noundef i32 @_ZNK9FieldInfo6offsetEv(ptr noundef nonnull align 4 dereferenceable(26) %3)
  ret i32 %5
}

; Function Attrs: mustprogress nounwind uwtable
define linkonce_odr hidden noundef ptr @_ZNK15fieldDescriptor9signatureEv(ptr noundef nonnull align 8 dereferenceable(48) %0) #1 comdat align 2 {
  %2 = alloca ptr, align 8
  %3 = alloca %class.FieldInfo, align 4
  store ptr %0, ptr %2, align 8
  %4 = load ptr, ptr %2, align 8
  call void @_ZNK15fieldDescriptor5fieldEv(ptr dead_on_unwind writable sret(%class.FieldInfo) align 4 %3, ptr noundef nonnull align 8 dereferenceable(48) %4)
  %5 = getelementptr inbounds %class.fieldDescriptor, ptr %4, i32 0, i32 1
  %6 = call noundef ptr @_ZNK18constantPoolHandleclEv(ptr noundef nonnull align 8 dereferenceable(16) %5)
  %7 = call noundef ptr @_ZNK9FieldInfo9signatureEP12ConstantPool(ptr noundef nonnull align 4 dereferenceable(26) %3, ptr noundef %6)
  ret ptr %7
}

; Function Attrs: mustprogress nounwind uwtable
define linkonce_odr hidden noundef ptr @_ZNK15fieldDescriptor4nameEv(ptr noundef nonnull align 8 dereferenceable(48) %0) #1 comdat align 2 {
  %2 = alloca ptr, align 8
  %3 = alloca %class.FieldInfo, align 4
  store ptr %0, ptr %2, align 8
  %4 = load ptr, ptr %2, align 8
  call void @_ZNK15fieldDescriptor5fieldEv(ptr dead_on_unwind writable sret(%class.FieldInfo) align 4 %3, ptr noundef nonnull align 8 dereferenceable(48) %4)
  %5 = getelementptr inbounds %class.fieldDescriptor, ptr %4, i32 0, i32 1
  %6 = call noundef ptr @_ZNK18constantPoolHandleclEv(ptr noundef nonnull align 8 dereferenceable(16) %5)
  %7 = call noundef ptr @_ZNK9FieldInfo4nameEP12ConstantPool(ptr noundef nonnull align 4 dereferenceable(26) %3, ptr noundef %6)
  ret ptr %7
}

; Function Attrs: mustprogress nounwind uwtable
define linkonce_odr hidden noundef zeroext i1 @_ZNK9FieldInfo10FieldFlags11is_injectedEv(ptr noundef nonnull align 4 dereferenceable(4) %0) #1 comdat align 2 {
  %2 = alloca ptr, align 8
  store ptr %0, ptr %2, align 8
  %3 = load ptr, ptr %2, align 8
  %4 = call noundef zeroext i1 @_ZNK9FieldInfo10FieldFlags9test_flagENS0_20FieldFlagBitPositionE(ptr noundef nonnull align 4 dereferenceable(4) %3, i32 noundef 1)
  ret i1 %4
}

; Function Attrs: mustprogress nounwind uwtable
define linkonce_odr hidden i32 @_ZNK15fieldDescriptor11field_flagsEv(ptr noundef nonnull align 8 dereferenceable(48) %0) #1 comdat align 2 {
  %2 = alloca %"class.FieldInfo::FieldFlags", align 4
  %3 = alloca ptr, align 8
  store ptr %0, ptr %3, align 8
  %4 = load ptr, ptr %3, align 8
  %5 = getelementptr inbounds %class.fieldDescriptor, ptr %4, i32 0, i32 0
  %6 = call i32 @_ZNK9FieldInfo11field_flagsEv(ptr noundef nonnull align 4 dereferenceable(26) %5)
  %7 = getelementptr inbounds %"class.FieldInfo::FieldFlags", ptr %2, i32 0, i32 0
  store i32 %6, ptr %7, align 4
  %8 = getelementptr inbounds %"class.FieldInfo::FieldFlags", ptr %2, i32 0, i32 0
  %9 = load i32, ptr %8, align 4
  ret i32 %9
}

; Function Attrs: mustprogress nounwind uwtable
define linkonce_odr hidden i32 @_ZNK15fieldDescriptor12access_flagsEv(ptr noundef nonnull align 8 dereferenceable(48) %0) #1 comdat align 2 {
  %2 = alloca %class.AccessFlags, align 4
  %3 = alloca ptr, align 8
  store ptr %0, ptr %3, align 8
  %4 = load ptr, ptr %3, align 8
  %5 = getelementptr inbounds %class.fieldDescriptor, ptr %4, i32 0, i32 0
  %6 = call i32 @_ZNK9FieldInfo12access_flagsEv(ptr noundef nonnull align 4 dereferenceable(26) %5)
  %7 = getelementptr inbounds %class.AccessFlags, ptr %2, i32 0, i32 0
  store i32 %6, ptr %7, align 4
  %8 = getelementptr inbounds %class.AccessFlags, ptr %2, i32 0, i32 0
  %9 = load i32, ptr %8, align 4
  ret i32 %9
}

; Function Attrs: mustprogress nounwind uwtable
define hidden void @_ZNK15fieldDescriptor8print_onEP12outputStream(ptr noundef nonnull align 8 dereferenceable(48) %0, ptr noundef %1) #1 align 2 {
  %3 = alloca ptr, align 8
  %4 = alloca ptr, align 8
  %5 = alloca %class.AccessFlags, align 4
  %6 = alloca %"class.FieldInfo::FieldFlags", align 4
  store ptr %0, ptr %3, align 8
  store ptr %1, ptr %4, align 8
  %7 = load ptr, ptr %3, align 8
  %8 = call i32 @_ZNK15fieldDescriptor12access_flagsEv(ptr noundef nonnull align 8 dereferenceable(48) %7)
  %9 = getelementptr inbounds %class.AccessFlags, ptr %5, i32 0, i32 0
  store i32 %8, ptr %9, align 4
  %10 = load ptr, ptr %4, align 8
  call void @_ZNK11AccessFlags8print_onEP12outputStream(ptr noundef nonnull align 4 dereferenceable(4) %5, ptr noundef %10)
  %11 = call i32 @_ZNK15fieldDescriptor11field_flagsEv(ptr noundef nonnull align 8 dereferenceable(48) %7)
  %12 = getelementptr inbounds %"class.FieldInfo::FieldFlags", ptr %6, i32 0, i32 0
  store i32 %11, ptr %12, align 4
  %13 = call noundef zeroext i1 @_ZNK9FieldInfo10FieldFlags11is_injectedEv(ptr noundef nonnull align 4 dereferenceable(4) %6)
  br i1 %13, label %14, label %16

14:                                               ; preds = %2
  %15 = load ptr, ptr %4, align 8
  call void (ptr, ptr, ...) @_ZN12outputStream5printEPKcz(ptr noundef nonnull align 8 dereferenceable(56) %15, ptr noundef @.str.6)
  br label %16

16:                                               ; preds = %14, %2
  %17 = call noundef ptr @_ZNK15fieldDescriptor4nameEv(ptr noundef nonnull align 8 dereferenceable(48) %7)
  %18 = load ptr, ptr %4, align 8
  call void @_ZNK6Symbol14print_value_onEP12outputStream(ptr noundef nonnull align 4 dereferenceable(8) %17, ptr noundef %18)
  %19 = load ptr, ptr %4, align 8
  call void (ptr, ptr, ...) @_ZN12outputStream5printEPKcz(ptr noundef nonnull align 8 dereferenceable(56) %19, ptr noundef @.str.7)
  %20 = call noundef ptr @_ZNK15fieldDescriptor9signatureEv(ptr noundef nonnull align 8 dereferenceable(48) %7)
  %21 = load ptr, ptr %4, align 8
  call void @_ZNK6Symbol14print_value_onEP12outputStream(ptr noundef nonnull align 4 dereferenceable(8) %20, ptr noundef %21)
  %22 = load ptr, ptr %4, align 8
  %23 = call noundef i32 @_ZNK15fieldDescriptor6offsetEv(ptr noundef nonnull align 8 dereferenceable(48) %7)
  call void (ptr, ptr, ...) @_ZN12outputStream5printEPKcz(ptr noundef nonnull align 8 dereferenceable(56) %22, ptr noundef @.str.8, i32 noundef %23)
  ret void
}