; Function Attrs: mustprogress nounwind uwtable
define hidden void @_ZNK15fieldDescriptor8print_onEP12outputStream(ptr nocapture noundef nonnull readonly align 8 dereferenceable(48) %0, ptr noundef %1) local_unnamed_addr #1 align 2 {
  %3 = alloca %class.AccessFlags, align 4
  %4 = getelementptr inbounds i8, ptr %0, i64 12
  %.sroa.0.0.copyload.i.i = load i32, ptr %4, align 4
  store i32 %.sroa.0.0.copyload.i.i, ptr %3, align 4
  call void @_ZNK11AccessFlags8print_onEP12outputStream(ptr noundef nonnull align 4 dereferenceable(4) %3, ptr noundef %1) #9
  %5 = getelementptr inbounds i8, ptr %0, i64 16
  %.sroa.0.0.copyload.i.i7 = load i32, ptr %5, align 8
  %6 = and i32 %.sroa.0.0.copyload.i.i7, 2
  %.not = icmp eq i32 %6, 0
  br i1 %.not, label %.thread, label %12

.thread:                                          ; preds = %2
  %.sroa.1.0..sroa_idx.i19 = getelementptr inbounds i8, ptr %0, i64 4
  %.sroa.1.0.copyload.i20 = load i16, ptr %.sroa.1.0..sroa_idx.i19, align 4
  %7 = getelementptr inbounds i8, ptr %0, i64 32
  %8 = load ptr, ptr %7, align 8
  %9 = zext i16 %.sroa.1.0.copyload.i20 to i64
  %10 = getelementptr inbounds i8, ptr %8, i64 72
  %11 = getelementptr inbounds i64, ptr %10, i64 %9
  br label %20

12:                                               ; preds = %2
  call void (ptr, ptr, ...) @_ZN12outputStream5printEPKcz(ptr noundef nonnull align 8 dereferenceable(56) %1, ptr noundef nonnull @.str.6) #9
  %.sroa.21.0.copyload.i.pre = load i32, ptr %5, align 8
  %.sroa.21.0.copyload.i.pre.fr = freeze i32 %.sroa.21.0.copyload.i.pre
  %.pre = and i32 %.sroa.21.0.copyload.i.pre.fr, 2
  %13 = icmp eq i32 %.pre, 0
  %.sroa.1.0..sroa_idx.i = getelementptr inbounds i8, ptr %0, i64 4
  %.sroa.1.0.copyload.i = load i16, ptr %.sroa.1.0..sroa_idx.i, align 4
  %14 = getelementptr inbounds i8, ptr %0, i64 32
  %15 = load ptr, ptr %14, align 8
  %16 = zext i16 %.sroa.1.0.copyload.i to i64
  %17 = getelementptr inbounds [0 x ptr], ptr @_ZN6Symbol11_vm_symbolsE, i64 0, i64 %16
  %18 = getelementptr inbounds i8, ptr %15, i64 72
  %19 = getelementptr inbounds i64, ptr %18, i64 %16
  %spec.select = select i1 %13, ptr %19, ptr %17
  br label %20

20:                                               ; preds = %12, %.thread
  %21 = phi ptr [ %7, %.thread ], [ %14, %12 ]
  %22 = phi ptr [ %11, %.thread ], [ %spec.select, %12 ]
  %.0.i.i = load ptr, ptr %22, align 8
  call void @_ZNK6Symbol14print_value_onEP12outputStream(ptr noundef nonnull align 4 dereferenceable(8) %.0.i.i, ptr noundef %1) #9
  call void (ptr, ptr, ...) @_ZN12outputStream5printEPKcz(ptr noundef nonnull align 8 dereferenceable(56) %1, ptr noundef nonnull @.str.7) #9
  %.sroa.1.0..sroa_idx.i8 = getelementptr inbounds i8, ptr %0, i64 6
  %.sroa.1.0.copyload.i9 = load i16, ptr %.sroa.1.0..sroa_idx.i8, align 2
  %.sroa.21.0.copyload.i11 = load i32, ptr %5, align 8
  %23 = load ptr, ptr %21, align 8
  %24 = and i32 %.sroa.21.0.copyload.i11, 2
  %.not.i.i12 = icmp eq i32 %24, 0
  %25 = zext i16 %.sroa.1.0.copyload.i9 to i64
  %26 = getelementptr inbounds [0 x ptr], ptr @_ZN6Symbol11_vm_symbolsE, i64 0, i64 %25
  %27 = getelementptr inbounds i8, ptr %23, i64 72
  %28 = getelementptr inbounds i64, ptr %27, i64 %25
  %.0.in.i.i13 = select i1 %.not.i.i12, ptr %28, ptr %26
  %.0.i.i14 = load ptr, ptr %.0.in.i.i13, align 8
  call void @_ZNK6Symbol14print_value_onEP12outputStream(ptr noundef nonnull align 4 dereferenceable(8) %.0.i.i14, ptr noundef nonnull %1) #9
  %.sroa.1.0..sroa_idx.i15 = getelementptr inbounds i8, ptr %0, i64 8
  %.sroa.1.0.copyload.i16 = load i32, ptr %.sroa.1.0..sroa_idx.i15, align 8
  call void (ptr, ptr, ...) @_ZN12outputStream5printEPKcz(ptr noundef nonnull align 8 dereferenceable(56) %1, ptr noundef nonnull @.str.8, i32 noundef %.sroa.1.0.copyload.i16) #9
  ret void
}